target datalayout = "e-m:e-p270:32:32-p271:32:32-p272:64:64-i64:64-i128:128-f80:128-n8:16:32:64-S128"
target triple = "x86_64-unknown-linux-gnu"

%struct.ObjectClass = type { ptr, ptr, [4 x ptr], [4 x ptr], ptr, ptr }
%struct.SDBusClass = type { %struct.BusClass, ptr, ptr }
%struct.BusClass = type { %struct.ObjectClass, ptr, ptr, ptr, ptr, ptr, ptr, ptr, i32, i32 }

@.str.1 = private unnamed_addr constant [7 x i8] c"sd-bus\00", align 1
@.str.165 = private unnamed_addr constant [97 x i8] c"/home/dtcxzyw/WorkSpace/Projects/compilers/llvm-opt-benchmark/bench/qemu/qemu/include/hw/sd/sd.h\00", align 1
@__func__.SD_BUS_CLASS = private unnamed_addr constant [13 x i8] c"SD_BUS_CLASS\00", align 1

; Function Attrs: nounwind sspstrong uwtable
define internal ptr @SD_BUS_CLASS(ptr noundef %klass) #0 {
entry:
  %klass.addr = alloca ptr, align 8
  store ptr %klass, ptr %klass.addr, align 8
  %0 = load ptr, ptr %klass.addr, align 8
  %call = call ptr @object_class_dynamic_cast_assert(ptr noundef %0, ptr noundef @.str.1, ptr noundef @.str.165, i32 noundef 136, ptr noundef @__func__.SD_BUS_CLASS)
  ret ptr %call
}

; Function Attrs: nounwind sspstrong uwtable
define internal void @sdhci_bus_class_init(ptr noundef %klass, ptr noundef %data) #0 {
entry:
  %klass.addr = alloca ptr, align 8
  %data.addr = alloca ptr, align 8
  %sbc = alloca ptr, align 8
  store ptr %klass, ptr %klass.addr, align 8
  store ptr %data, ptr %data.addr, align 8
  %0 = load ptr, ptr %klass.addr, align 8
  %call = call ptr @SD_BUS_CLASS(ptr noundef %0)
  store ptr %call, ptr %sbc, align 8
  %1 = load ptr, ptr %sbc, align 8
  %set_inserted = getelementptr inbounds %struct.SDBusClass, ptr %1, i32 0, i32 1
  store ptr @sdhci_set_inserted, ptr %set_inserted, align 8
  %2 = load ptr, ptr %sbc, align 8
  %set_readonly = getelementptr inbounds %struct.SDBusClass, ptr %2, i32 0, i32 2
  store ptr @sdhci_set_readonly, ptr %set_readonly, align 8
  ret void
}