; Function Attrs: nounwind sspstrong uwtable
define internal void @sdhci_bus_class_init(ptr noundef %klass, ptr readnone captures(none) %data) #0 {
entry:
  %call.i = tail call ptr @object_class_dynamic_cast_assert(ptr noundef %klass, ptr noundef nonnull @.str.1, ptr noundef nonnull @.str.165, i32 noundef 136, ptr noundef nonnull @__func__.SD_BUS_CLASS) #12
  %set_inserted = getelementptr inbounds nuw i8, ptr %call.i, i64 160
  store ptr @sdhci_set_inserted, ptr %set_inserted, align 8
  %set_readonly = getelementptr inbounds nuw i8, ptr %call.i, i64 168
  store ptr @sdhci_set_readonly, ptr %set_readonly, align 8
  ret void
}